target datalayout = "e-m:e-p270:32:32-p271:32:32-p272:64:64-i64:64-i128:128-f80:128-n8:16:32:64-S128"
target triple = "x86_64-pc-linux-gnu"

; Function Attrs: inlinehint mustprogress nounwind uwtable
define internal noundef signext i8 @_ZL9U_FAILURE10UErrorCode(i32 noundef %0) #2 {
  %2 = alloca i32, align 4
  store i32 %0, ptr %2, align 4, !tbaa !16
  %3 = load i32, ptr %2, align 4, !tbaa !16
  %4 = icmp sgt i32 %3, 0
  %5 = zext i1 %4 to i8
  ret i8 %5
}

; Function Attrs: mustprogress nounwind uwtable
define internal noundef i32 @_ZL16uprv_swapArray32PK12UDataSwapperPKviPvP10UErrorCode(ptr noundef %0, ptr noundef %1, i32 noundef %2, ptr noundef %3, ptr noundef %4) #7 {
  %6 = alloca i32, align 4
  %7 = alloca ptr, align 8
  %8 = alloca ptr, align 8
  %9 = alloca i32, align 4
  %10 = alloca ptr, align 8
  %11 = alloca ptr, align 8
  %12 = alloca ptr, align 8
  %13 = alloca ptr, align 8
  %14 = alloca i32, align 4
  %15 = alloca i32, align 4
  %16 = alloca i32, align 4
  store ptr %0, ptr %7, align 8, !tbaa !3
  store ptr %1, ptr %8, align 8, !tbaa !15
  store i32 %2, ptr %9, align 4, !tbaa !12
  store ptr %3, ptr %10, align 8, !tbaa !15
  store ptr %4, ptr %11, align 8, !tbaa !15
  call void @llvm.lifetime.start.p0(i64 8, ptr %12) #9
  call void @llvm.lifetime.start.p0(i64 8, ptr %13) #9
  call void @llvm.lifetime.start.p0(i64 4, ptr %14) #9
  call void @llvm.lifetime.start.p0(i64 4, ptr %15) #9
  %17 = load ptr, ptr %11, align 8, !tbaa !15
  %18 = icmp eq ptr %17, null
  br i1 %18, label %24, label %19

19:                                               ; preds = %5
  %20 = load ptr, ptr %11, align 8, !tbaa !15
  %21 = load i32, ptr %20, align 4, !tbaa !16
  %22 = call noundef signext i8 @_ZL9U_FAILURE10UErrorCode(i32 noundef %21)
  %23 = icmp ne i8 %22, 0
  br i1 %23, label %24, label %25

24:                                               ; preds = %19, %5
  store i32 0, ptr %6, align 4
  store i32 1, ptr %16, align 4
  br label %74

25:                                               ; preds = %19
  %26 = load ptr, ptr %7, align 8, !tbaa !3
  %27 = icmp eq ptr %26, null
  br i1 %27, label %41, label %28

28:                                               ; preds = %25
  %29 = load ptr, ptr %8, align 8, !tbaa !15
  %30 = icmp eq ptr %29, null
  br i1 %30, label %41, label %31

31:                                               ; preds = %28
  %32 = load i32, ptr %9, align 4, !tbaa !12
  %33 = icmp slt i32 %32, 0
  br i1 %33, label %41, label %34

34:                                               ; preds = %31
  %35 = load i32, ptr %9, align 4, !tbaa !12
  %36 = and i32 %35, 3
  %37 = icmp ne i32 %36, 0
  br i1 %37, label %41, label %38

38:                                               ; preds = %34
  %39 = load ptr, ptr %10, align 8, !tbaa !15
  %40 = icmp eq ptr %39, null
  br i1 %40, label %41, label %43

41:                                               ; preds = %38, %34, %31, %28, %25
  %42 = load ptr, ptr %11, align 8, !tbaa !15
  store i32 1, ptr %42, align 4, !tbaa !16
  store i32 0, ptr %6, align 4
  store i32 1, ptr %16, align 4
  br label %74

43:                                               ; preds = %38
  %44 = load ptr, ptr %8, align 8, !tbaa !15
  store ptr %44, ptr %12, align 8, !tbaa !49
  %45 = load ptr, ptr %10, align 8, !tbaa !15
  store ptr %45, ptr %13, align 8, !tbaa !49
  %46 = load i32, ptr %9, align 4, !tbaa !12
  %47 = sdiv i32 %46, 4
  store i32 %47, ptr %14, align 4, !tbaa !12
  br label %48

48:                                               ; preds = %51, %43
  %49 = load i32, ptr %14, align 4, !tbaa !12
  %50 = icmp sgt i32 %49, 0
  br i1 %50, label %51, label %72

51:                                               ; preds = %48
  %52 = load ptr, ptr %12, align 8, !tbaa !49
  %53 = getelementptr inbounds nuw i32, ptr %52, i32 1
  store ptr %53, ptr %12, align 8, !tbaa !49
  %54 = load i32, ptr %52, align 4, !tbaa !12
  store i32 %54, ptr %15, align 4, !tbaa !12
  %55 = load i32, ptr %15, align 4, !tbaa !12
  %56 = shl i32 %55, 24
  %57 = load i32, ptr %15, align 4, !tbaa !12
  %58 = shl i32 %57, 8
  %59 = and i32 %58, 16711680
  %60 = or i32 %56, %59
  %61 = load i32, ptr %15, align 4, !tbaa !12
  %62 = lshr i32 %61, 8
  %63 = and i32 %62, 65280
  %64 = or i32 %60, %63
  %65 = load i32, ptr %15, align 4, !tbaa !12
  %66 = lshr i32 %65, 24
  %67 = or i32 %64, %66
  %68 = load ptr, ptr %13, align 8, !tbaa !49
  %69 = getelementptr inbounds nuw i32, ptr %68, i32 1
  store ptr %69, ptr %13, align 8, !tbaa !49
  store i32 %67, ptr %68, align 4, !tbaa !12
  %70 = load i32, ptr %14, align 4, !tbaa !12
  %71 = add nsw i32 %70, -1
  store i32 %71, ptr %14, align 4, !tbaa !12
  br label %48, !llvm.loop !52

72:                                               ; preds = %48
  %73 = load i32, ptr %9, align 4, !tbaa !12
  store i32 %73, ptr %6, align 4
  store i32 1, ptr %16, align 4
  br label %74

74:                                               ; preds = %72, %41, %24
  call void @llvm.lifetime.end.p0(i64 4, ptr %15) #9
  call void @llvm.lifetime.end.p0(i64 4, ptr %14) #9
  call void @llvm.lifetime.end.p0(i64 8, ptr %13) #9
  call void @llvm.lifetime.end.p0(i64 8, ptr %12) #9
  %75 = load i32, ptr %6, align 4
  ret i32 %75
}